; ModuleID = '19/1120.c'
source_filename = "19/1120.c"
target datalayout = "e-m:e-p270:32:32-p271:32:32-p272:64:64-i64:64-f80:128-n8:16:32:64-S128"
target triple = "x86_64-pc-linux-gnu"

@.str = private unnamed_addr constant [6 x i8] c"%s\0A%s\00", align 1
@.str.1 = private unnamed_addr constant [3 x i8] c"%s\00", align 1
@.str.2 = private unnamed_addr constant [4 x i8] c" %s\00", align 1

; Function Attrs: noinline nounwind uwtable
define dso_local i32 @main() #0 {
  %1 = alloca i32, align 4
  %2 = alloca [50 x [20 x i8]], align 16
  %3 = alloca i8, align 1
  %4 = alloca [20 x i8], align 16
  %5 = alloca [20 x i8], align 16
  %6 = alloca i32, align 4
  %7 = alloca i32, align 4
  %8 = alloca i32, align 4
  store i32 0, i32* %1, align 4
  store i32 0, i32* %6, align 4
  br label %9

9:                                                ; preds = %27, %0
  %10 = load i32, i32* %6, align 4
  %11 = icmp slt i32 %10, 50
  br i1 %11, label %12, label %30

12:                                               ; preds = %9
  store i32 0, i32* %7, align 4
  br label %13

13:                                               ; preds = %23, %12
  %14 = load i32, i32* %7, align 4
  %15 = icmp slt i32 %14, 20
  br i1 %15, label %16, label %26

16:                                               ; preds = %13
  %17 = load i32, i32* %6, align 4
  %18 = sext i32 %17 to i64
  %19 = getelementptr inbounds [50 x [20 x i8]], [50 x [20 x i8]]* %2, i64 0, i64 %18
  %20 = load i32, i32* %7, align 4
  %21 = sext i32 %20 to i64
  %22 = getelementptr inbounds [20 x i8], [20 x i8]* %19, i64 0, i64 %21
  store i8 0, i8* %22, align 1
  br label %23

23:                                               ; preds = %16
  %24 = load i32, i32* %7, align 4
  %25 = add nsw i32 %24, 1
  store i32 %25, i32* %7, align 4
  br label %13

26:                                               ; preds = %13
  br label %27

27:                                               ; preds = %26
  %28 = load i32, i32* %6, align 4
  %29 = add nsw i32 %28, 1
  store i32 %29, i32* %6, align 4
  br label %9

30:                                               ; preds = %9
  store i32 0, i32* %6, align 4
  store i32 0, i32* %7, align 4
  br label %31

31:                                               ; preds = %30, %59
  %32 = call i32 @getchar()
  %33 = trunc i32 %32 to i8
  store i8 %33, i8* %3, align 1
  %34 = load i8, i8* %3, align 1
  %35 = sext i8 %34 to i32
  %36 = icmp ne i32 %35, 10
  br i1 %36, label %37, label %51

37:                                               ; preds = %31
  %38 = load i8, i8* %3, align 1
  %39 = sext i8 %38 to i32
  %40 = icmp ne i32 %39, 32
  br i1 %40, label %41, label %51

41:                                               ; preds = %37
  %42 = load i8, i8* %3, align 1
  %43 = load i32, i32* %6, align 4
  %44 = sext i32 %43 to i64
  %45 = getelementptr inbounds [50 x [20 x i8]], [50 x [20 x i8]]* %2, i64 0, i64 %44
  %46 = load i32, i32* %7, align 4
  %47 = sext i32 %46 to i64
  %48 = getelementptr inbounds [20 x i8], [20 x i8]* %45, i64 0, i64 %47
  store i8 %42, i8* %48, align 1
  %49 = load i32, i32* %7, align 4
  %50 = add nsw i32 %49, 1
  store i32 %50, i32* %7, align 4
  br label %54

51:                                               ; preds = %37, %31
  %52 = load i32, i32* %6, align 4
  %53 = add nsw i32 %52, 1
  store i32 %53, i32* %6, align 4
  store i32 0, i32* %7, align 4
  br label %54

54:                                               ; preds = %51, %41
  %55 = load i8, i8* %3, align 1
  %56 = sext i8 %55 to i32
  %57 = icmp eq i32 %56, 10
  br i1 %57, label %58, label %59

58:                                               ; preds = %54
  br label %60

59:                                               ; preds = %54
  br label %31

60:                                               ; preds = %58
  %61 = getelementptr inbounds [20 x i8], [20 x i8]* %4, i64 0, i64 0
  %62 = getelementptr inbounds [20 x i8], [20 x i8]* %5, i64 0, i64 0
  %63 = call i32 (i8*, ...) @__isoc99_scanf(i8* getelementptr inbounds ([6 x i8], [6 x i8]* @.str, i64 0, i64 0), i8* %61, i8* %62)
  store i32 0, i32* %8, align 4
  br label %64

64:                                               ; preds = %84, %60
  %65 = load i32, i32* %8, align 4
  %66 = load i32, i32* %6, align 4
  %67 = icmp slt i32 %65, %66
  br i1 %67, label %68, label %87

68:                                               ; preds = %64
  %69 = load i32, i32* %8, align 4
  %70 = sext i32 %69 to i64
  %71 = getelementptr inbounds [50 x [20 x i8]], [50 x [20 x i8]]* %2, i64 0, i64 %70
  %72 = getelementptr inbounds [20 x i8], [20 x i8]* %71, i64 0, i64 0
  %73 = getelementptr inbounds [20 x i8], [20 x i8]* %4, i64 0, i64 0
  %74 = call i32 @strcmp(i8* %72, i8* %73) #4
  %75 = icmp ne i32 %74, 0
  br i1 %75, label %83, label %76

76:                                               ; preds = %68
  %77 = load i32, i32* %8, align 4
  %78 = sext i32 %77 to i64
  %79 = getelementptr inbounds [50 x [20 x i8]], [50 x [20 x i8]]* %2, i64 0, i64 %78
  %80 = getelementptr inbounds [20 x i8], [20 x i8]* %79, i64 0, i64 0
  %81 = getelementptr inbounds [20 x i8], [20 x i8]* %5, i64 0, i64 0
  %82 = call i8* @strcpy(i8* %80, i8* %81) #5
  br label %83

83:                                               ; preds = %76, %68
  br label %84

84:                                               ; preds = %83
  %85 = load i32, i32* %8, align 4
  %86 = add nsw i32 %85, 1
  store i32 %86, i32* %8, align 4
  br label %64

87:                                               ; preds = %64
  store i32 0, i32* %8, align 4
  br label %88

88:                                               ; preds = %108, %87
  %89 = load i32, i32* %8, align 4
  %90 = load i32, i32* %6, align 4
  %91 = icmp slt i32 %89, %90
  br i1 %91, label %92, label %111

92:                                               ; preds = %88
  %93 = load i32, i32* %8, align 4
  %94 = icmp ne i32 %93, 0
  br i1 %94, label %101, label %95

95:                                               ; preds = %92
  %96 = load i32, i32* %8, align 4
  %97 = sext i32 %96 to i64
  %98 = getelementptr inbounds [50 x [20 x i8]], [50 x [20 x i8]]* %2, i64 0, i64 %97
  %99 = getelementptr inbounds [20 x i8], [20 x i8]* %98, i64 0, i64 0
  %100 = call i32 (i8*, ...) @printf(i8* getelementptr inbounds ([3 x i8], [3 x i8]* @.str.1, i64 0, i64 0), i8* %99)
  br label %107

101:                                              ; preds = %92
  %102 = load i32, i32* %8, align 4
  %103 = sext i32 %102 to i64
  %104 = getelementptr inbounds [50 x [20 x i8]], [50 x [20 x i8]]* %2, i64 0, i64 %103
  %105 = getelementptr inbounds [20 x i8], [20 x i8]* %104, i64 0, i64 0
  %106 = call i32 (i8*, ...) @printf(i8* getelementptr inbounds ([4 x i8], [4 x i8]* @.str.2, i64 0, i64 0), i8* %105)
  br label %107

107:                                              ; preds = %101, %95
  br label %108

108:                                              ; preds = %107
  %109 = load i32, i32* %8, align 4
  %110 = add nsw i32 %109, 1
  store i32 %110, i32* %8, align 4
  br label %88

111:                                              ; preds = %88
  ret i32 0
}

declare dso_local i32 @getchar() #1

declare dso_local i32 @__isoc99_scanf(i8*, ...) #1

; Function Attrs: nounwind readonly
declare dso_local i32 @strcmp(i8*, i8*) #2

; Function Attrs: nounwind
declare dso_local i8* @strcpy(i8*, i8*) #3

declare dso_local i32 @printf(i8*, ...) #1


!llvm.module.flags = !{!0}
!llvm.ident = !{!1}

!0 = !{i32 1, !"wchar_size", i32 4}
!1 = !{!"clang version 10.0.0-4ubuntu1 "}
