; ModuleID = 'source-C-CXX/18/1120.c'
source_filename = "source-C-CXX/18/1120.c"
target datalayout = "e-m:e-p270:32:32-p271:32:32-p272:64:64-i64:64-f80:128-n8:16:32:64-S128"
target triple = "x86_64-pc-linux-gnu"

%struct._IO_FILE = type { i32, i8*, i8*, i8*, i8*, i8*, i8*, i8*, i8*, i8*, i8*, i8*, %struct._IO_marker*, %struct._IO_FILE*, i32, i32, i64, i16, i8, [1 x i8], i8*, i64, %struct._IO_codecvt*, %struct._IO_wide_data*, %struct._IO_FILE*, i8*, i64, i32, [20 x i8] }
%struct._IO_marker = type opaque
%struct._IO_codecvt = type opaque
%struct._IO_wide_data = type opaque

@.str = private unnamed_addr constant [6 x i8] c"%s\0A%s\00", align 1
@.str.1 = private unnamed_addr constant [3 x i8] c"%s\00", align 1
@.str.2 = private unnamed_addr constant [4 x i8] c" %s\00", align 1
@stdin = external local_unnamed_addr global %struct._IO_FILE*, align 8

; Function Attrs: nofree nounwind sspstrong uwtable
define dso_local i32 @main() local_unnamed_addr #0 {
  %1 = alloca [50 x [20 x i8]], align 16
  %2 = getelementptr inbounds [50 x [20 x i8]], [50 x [20 x i8]]* %1, i64 0, i64 0, i64 0
  %3 = alloca [20 x i8], align 16
  %4 = alloca [20 x i8], align 16
  %5 = getelementptr inbounds [50 x [20 x i8]], [50 x [20 x i8]]* %1, i64 0, i64 0, i64 0
  call void @llvm.lifetime.start.p0i8(i64 1000, i8* nonnull %5) #6
  %6 = getelementptr inbounds [20 x i8], [20 x i8]* %3, i64 0, i64 0
  call void @llvm.lifetime.start.p0i8(i64 20, i8* nonnull %6) #6
  %7 = getelementptr inbounds [20 x i8], [20 x i8]* %4, i64 0, i64 0
  call void @llvm.lifetime.start.p0i8(i64 20, i8* nonnull %7) #6
  call void @llvm.memset.p0i8.i64(i8* noundef nonnull align 16 dereferenceable(1000) %2, i8 0, i64 1000, i1 false)
  br label %8

8:                                                ; preds = %0, %22
  %9 = phi i32 [ %23, %22 ], [ 0, %0 ]
  %10 = phi i32 [ %24, %22 ], [ 0, %0 ]
  %11 = load %struct._IO_FILE*, %struct._IO_FILE** @stdin, align 8, !tbaa !5
  %12 = tail call i32 @getc(%struct._IO_FILE* %11) #6
  %13 = shl i32 %12, 24
  switch i32 %13, label %14 [
    i32 167772160, label %20
    i32 536870912, label %20
  ]

14:                                               ; preds = %8
  %15 = trunc i32 %12 to i8
  %16 = sext i32 %9 to i64
  %17 = sext i32 %10 to i64
  %18 = getelementptr inbounds [50 x [20 x i8]], [50 x [20 x i8]]* %1, i64 0, i64 %16, i64 %17
  store i8 %15, i8* %18, align 1, !tbaa !9
  %19 = add nsw i32 %10, 1
  br label %22

20:                                               ; preds = %8, %8
  %21 = add nsw i32 %9, 1
  br label %22

22:                                               ; preds = %20, %14
  %23 = phi i32 [ %9, %14 ], [ %21, %20 ]
  %24 = phi i32 [ %19, %14 ], [ 0, %20 ]
  %25 = icmp eq i32 %13, 167772160
  br i1 %25, label %26, label %8

26:                                               ; preds = %22
  %27 = call i32 (i8*, ...) @__isoc99_scanf(i8* getelementptr inbounds ([6 x i8], [6 x i8]* @.str, i64 0, i64 0), i8* nonnull %6, i8* nonnull %7)
  %28 = icmp sgt i32 %23, 0
  br i1 %28, label %29, label %52

29:                                               ; preds = %26
  %30 = zext i32 %23 to i64
  br label %36

31:                                               ; preds = %43
  br i1 %28, label %32, label %52

32:                                               ; preds = %31
  %33 = zext i32 %23 to i64
  %34 = call i32 (i8*, ...) @printf(i8* nonnull dereferenceable(1) getelementptr inbounds ([3 x i8], [3 x i8]* @.str.1, i64 0, i64 0), i8* nonnull %5)
  %35 = icmp eq i32 %23, 1
  br i1 %35, label %52, label %46

36:                                               ; preds = %29, %43
  %37 = phi i64 [ 0, %29 ], [ %44, %43 ]
  %38 = getelementptr inbounds [50 x [20 x i8]], [50 x [20 x i8]]* %1, i64 0, i64 %37, i64 0
  %39 = call i32 @strcmp(i8* noundef nonnull %38, i8* noundef nonnull %6) #7
  %40 = icmp eq i32 %39, 0
  br i1 %40, label %41, label %43

41:                                               ; preds = %36
  %42 = call i8* @strcpy(i8* noundef nonnull %38, i8* noundef nonnull %7) #6
  br label %43

43:                                               ; preds = %36, %41
  %44 = add nuw nsw i64 %37, 1
  %45 = icmp eq i64 %44, %30
  br i1 %45, label %31, label %36, !llvm.loop !10

46:                                               ; preds = %32, %46
  %47 = phi i64 [ %50, %46 ], [ 1, %32 ]
  %48 = getelementptr inbounds [50 x [20 x i8]], [50 x [20 x i8]]* %1, i64 0, i64 %47, i64 0
  %49 = call i32 (i8*, ...) @printf(i8* nonnull dereferenceable(1) getelementptr inbounds ([4 x i8], [4 x i8]* @.str.2, i64 0, i64 0), i8* nonnull %48)
  %50 = add nuw nsw i64 %47, 1
  %51 = icmp eq i64 %50, %33
  br i1 %51, label %52, label %46, !llvm.loop !12

52:                                               ; preds = %46, %26, %32, %31
  call void @llvm.lifetime.end.p0i8(i64 20, i8* nonnull %7) #6
  call void @llvm.lifetime.end.p0i8(i64 20, i8* nonnull %6) #6
  call void @llvm.lifetime.end.p0i8(i64 1000, i8* nonnull %5) #6
  ret i32 0
}

; Function Attrs: argmemonly mustprogress nofree nosync nounwind willreturn
declare void @llvm.lifetime.start.p0i8(i64 immarg, i8* nocapture) #1

; Function Attrs: nofree nounwind
declare noundef i32 @__isoc99_scanf(i8* nocapture noundef readonly, ...) local_unnamed_addr #2

; Function Attrs: argmemonly mustprogress nofree nounwind readonly willreturn
declare i32 @strcmp(i8* nocapture, i8* nocapture) local_unnamed_addr #3

; Function Attrs: argmemonly mustprogress nofree nounwind willreturn
declare i8* @strcpy(i8* noalias returned writeonly, i8* noalias nocapture readonly) local_unnamed_addr #4

; Function Attrs: nofree nounwind
declare noundef i32 @printf(i8* nocapture noundef readonly, ...) local_unnamed_addr #2

; Function Attrs: argmemonly mustprogress nofree nosync nounwind willreturn
declare void @llvm.lifetime.end.p0i8(i64 immarg, i8* nocapture) #1

; Function Attrs: nofree nounwind
declare noundef i32 @getc(%struct._IO_FILE* nocapture noundef) local_unnamed_addr #2

; Function Attrs: argmemonly nofree nounwind willreturn writeonly
declare void @llvm.memset.p0i8.i64(i8* nocapture writeonly, i8, i64, i1 immarg) #5


!llvm.module.flags = !{!0, !1, !2, !3}
!llvm.ident = !{!4}

!0 = !{i32 1, !"wchar_size", i32 4}
!1 = !{i32 7, !"PIC Level", i32 2}
!2 = !{i32 7, !"PIE Level", i32 2}
!3 = !{i32 7, !"uwtable", i32 1}
!4 = !{!"clang version 13.0.0"}
!5 = !{!6, !6, i64 0}
!6 = !{!"any pointer", !7, i64 0}
!7 = !{!"omnipotent char", !8, i64 0}
!8 = !{!"Simple C/C++ TBAA"}
!9 = !{!7, !7, i64 0}
!10 = distinct !{!10, !11}
!11 = !{!"llvm.loop.mustprogress"}
!12 = distinct !{!12, !11, !13}
!13 = !{!"llvm.loop.peeled.count", i32 1}
